; Function Attrs: nounwind uwtable
define noalias ptr @EC_KEY_METHOD_new(ptr noundef readonly captures(address_is_null) %0) local_unnamed_addr #4 {
  %2 = tail call noalias ptr @CRYPTO_zalloc(i64 noundef 120, ptr noundef nonnull @.str, i32 noundef 179) #10
  %3 = icmp eq ptr %2, null
  br i1 %3, label %10, label %4

4:                                                ; preds = %1
  %.not = icmp eq ptr %0, null
  br i1 %.not, label %6, label %5

5:                                                ; preds = %4
  tail call void @llvm.memcpy.p0.p0.i64(ptr noundef nonnull align 8 dereferenceable(120) %2, ptr noundef nonnull align 8 dereferenceable(120) %0, i64 120, i1 false), !tbaa.struct !33
  br label %6

6:                                                ; preds = %5, %4
  %7 = getelementptr inbounds nuw i8, ptr %2, i64 8
  %8 = load i32, ptr %7, align 8, !tbaa !36
  %9 = or i32 %8, 1
  store i32 %9, ptr %7, align 8, !tbaa !36
  br label %10

10:                                               ; preds = %1, %6
  ret ptr %2
}